target datalayout = "e-m:e-p270:32:32-p271:32:32-p272:64:64-i64:64-i128:128-f80:128-n8:16:32:64-S128"
target triple = "x86_64-pc-linux-gnu"

%struct.MVNDistinct = type { i32, i32, i32, [0 x %struct.MVNDistinctItem] }
%struct.MVNDistinctItem = type { double, i32, ptr }
%struct.anon = type { i32, [0 x i8] }

; Function Attrs: nounwind uwtable
define dso_local ptr @statext_ndistinct_serialize(ptr noundef %0) #0 {
  %2 = alloca ptr, align 8
  %3 = alloca i32, align 4
  %4 = alloca ptr, align 8
  %5 = alloca ptr, align 8
  %6 = alloca i64, align 8
  %7 = alloca i32, align 4
  %8 = alloca %struct.MVNDistinctItem, align 8
  %9 = alloca i32, align 4
  store ptr %0, ptr %2, align 8
  call void @llvm.lifetime.start.p0(i64 4, ptr %3) #7
  call void @llvm.lifetime.start.p0(i64 8, ptr %4) #7
  call void @llvm.lifetime.start.p0(i64 8, ptr %5) #7
  call void @llvm.lifetime.start.p0(i64 8, ptr %6) #7
  store i64 16, ptr %6, align 8
  store i32 0, ptr %3, align 4
  br label %10

10:                                               ; preds = %30, %1
  %11 = load i32, ptr %3, align 4
  %12 = load ptr, ptr %2, align 8
  %13 = getelementptr inbounds nuw %struct.MVNDistinct, ptr %12, i32 0, i32 2
  %14 = load i32, ptr %13, align 8
  %15 = icmp ult i32 %11, %14
  br i1 %15, label %16, label %33

16:                                               ; preds = %10
  call void @llvm.lifetime.start.p0(i64 4, ptr %7) #7
  %17 = load ptr, ptr %2, align 8
  %18 = getelementptr inbounds nuw %struct.MVNDistinct, ptr %17, i32 0, i32 3
  %19 = load i32, ptr %3, align 4
  %20 = sext i32 %19 to i64
  %21 = getelementptr inbounds [0 x %struct.MVNDistinctItem], ptr %18, i64 0, i64 %20
  %22 = getelementptr inbounds nuw %struct.MVNDistinctItem, ptr %21, i32 0, i32 1
  %23 = load i32, ptr %22, align 8
  store i32 %23, ptr %7, align 4
  %24 = load i32, ptr %7, align 4
  %25 = sext i32 %24 to i64
  %26 = mul i64 %25, 2
  %27 = add i64 12, %26
  %28 = load i64, ptr %6, align 8
  %29 = add i64 %28, %27
  store i64 %29, ptr %6, align 8
  call void @llvm.lifetime.end.p0(i64 4, ptr %7) #7
  br label %30

30:                                               ; preds = %16
  %31 = load i32, ptr %3, align 4
  %32 = add i32 %31, 1
  store i32 %32, ptr %3, align 4
  br label %10, !llvm.loop !15

33:                                               ; preds = %10
  %34 = load i64, ptr %6, align 8
  %35 = call ptr @palloc(i64 noundef %34)
  store ptr %35, ptr %4, align 8
  %36 = load i64, ptr %6, align 8
  %37 = trunc i64 %36 to i32
  %38 = shl i32 %37, 2
  %39 = load ptr, ptr %4, align 8
  %40 = getelementptr inbounds nuw %struct.anon, ptr %39, i32 0, i32 0
  store i32 %38, ptr %40, align 4
  %41 = load ptr, ptr %4, align 8
  %42 = getelementptr inbounds nuw %struct.anon, ptr %41, i32 0, i32 1
  %43 = getelementptr inbounds [0 x i8], ptr %42, i64 0, i64 0
  store ptr %43, ptr %5, align 8
  %44 = load ptr, ptr %5, align 8
  %45 = load ptr, ptr %2, align 8
  %46 = getelementptr inbounds nuw %struct.MVNDistinct, ptr %45, i32 0, i32 0
  call void @llvm.memcpy.p0.p0.i64(ptr align 1 %44, ptr align 8 %46, i64 4, i1 false)
  %47 = load ptr, ptr %5, align 8
  %48 = getelementptr inbounds nuw i8, ptr %47, i64 4
  store ptr %48, ptr %5, align 8
  %49 = load ptr, ptr %5, align 8
  %50 = load ptr, ptr %2, align 8
  %51 = getelementptr inbounds nuw %struct.MVNDistinct, ptr %50, i32 0, i32 1
  call void @llvm.memcpy.p0.p0.i64(ptr align 1 %49, ptr align 4 %51, i64 4, i1 false)
  %52 = load ptr, ptr %5, align 8
  %53 = getelementptr inbounds nuw i8, ptr %52, i64 4
  store ptr %53, ptr %5, align 8
  %54 = load ptr, ptr %5, align 8
  %55 = load ptr, ptr %2, align 8
  %56 = getelementptr inbounds nuw %struct.MVNDistinct, ptr %55, i32 0, i32 2
  call void @llvm.memcpy.p0.p0.i64(ptr align 1 %54, ptr align 8 %56, i64 4, i1 false)
  %57 = load ptr, ptr %5, align 8
  %58 = getelementptr inbounds nuw i8, ptr %57, i64 4
  store ptr %58, ptr %5, align 8
  store i32 0, ptr %3, align 4
  br label %59

59:                                               ; preds = %91, %33
  %60 = load i32, ptr %3, align 4
  %61 = load ptr, ptr %2, align 8
  %62 = getelementptr inbounds nuw %struct.MVNDistinct, ptr %61, i32 0, i32 2
  %63 = load i32, ptr %62, align 8
  %64 = icmp ult i32 %60, %63
  br i1 %64, label %65, label %94

65:                                               ; preds = %59
  call void @llvm.lifetime.start.p0(i64 24, ptr %8) #7
  %66 = load ptr, ptr %2, align 8
  %67 = getelementptr inbounds nuw %struct.MVNDistinct, ptr %66, i32 0, i32 3
  %68 = load i32, ptr %3, align 4
  %69 = sext i32 %68 to i64
  %70 = getelementptr inbounds [0 x %struct.MVNDistinctItem], ptr %67, i64 0, i64 %69
  call void @llvm.memcpy.p0.p0.i64(ptr align 8 %8, ptr align 8 %70, i64 24, i1 false)
  call void @llvm.lifetime.start.p0(i64 4, ptr %9) #7
  %71 = getelementptr inbounds nuw %struct.MVNDistinctItem, ptr %8, i32 0, i32 1
  %72 = load i32, ptr %71, align 8
  store i32 %72, ptr %9, align 4
  %73 = load ptr, ptr %5, align 8
  %74 = getelementptr inbounds nuw %struct.MVNDistinctItem, ptr %8, i32 0, i32 0
  call void @llvm.memcpy.p0.p0.i64(ptr align 1 %73, ptr align 8 %74, i64 8, i1 false)
  %75 = load ptr, ptr %5, align 8
  %76 = getelementptr inbounds nuw i8, ptr %75, i64 8
  store ptr %76, ptr %5, align 8
  %77 = load ptr, ptr %5, align 8
  call void @llvm.memcpy.p0.p0.i64(ptr align 1 %77, ptr align 4 %9, i64 4, i1 false)
  %78 = load ptr, ptr %5, align 8
  %79 = getelementptr inbounds nuw i8, ptr %78, i64 4
  store ptr %79, ptr %5, align 8
  %80 = load ptr, ptr %5, align 8
  %81 = getelementptr inbounds nuw %struct.MVNDistinctItem, ptr %8, i32 0, i32 2
  %82 = load ptr, ptr %81, align 8
  %83 = load i32, ptr %9, align 4
  %84 = sext i32 %83 to i64
  %85 = mul i64 2, %84
  call void @llvm.memcpy.p0.p0.i64(ptr align 1 %80, ptr align 2 %82, i64 %85, i1 false)
  %86 = load i32, ptr %9, align 4
  %87 = sext i32 %86 to i64
  %88 = mul i64 %87, 2
  %89 = load ptr, ptr %5, align 8
  %90 = getelementptr inbounds nuw i8, ptr %89, i64 %88
  store ptr %90, ptr %5, align 8
  call void @llvm.lifetime.end.p0(i64 4, ptr %9) #7
  call void @llvm.lifetime.end.p0(i64 24, ptr %8) #7
  br label %91

91:                                               ; preds = %65
  %92 = load i32, ptr %3, align 4
  %93 = add i32 %92, 1
  store i32 %93, ptr %3, align 4
  br label %59, !llvm.loop !16

94:                                               ; preds = %59
  %95 = load ptr, ptr %4, align 8
  call void @llvm.lifetime.end.p0(i64 8, ptr %6) #7
  call void @llvm.lifetime.end.p0(i64 8, ptr %5) #7
  call void @llvm.lifetime.end.p0(i64 8, ptr %4) #7
  call void @llvm.lifetime.end.p0(i64 4, ptr %3) #7
  ret ptr %95
}