; Function Attrs: nounwind uwtable
define dso_local noundef ptr @statext_ndistinct_serialize(ptr noundef readonly captures(none) %0) local_unnamed_addr #0 {
  %2 = getelementptr inbounds nuw i8, ptr %0, i64 8
  %3 = load i32, ptr %2, align 8
  %.not = icmp eq i32 %3, 0
  br i1 %.not, label %._crit_edge, label %.lr.ph

.lr.ph:                                           ; preds = %1
  %4 = getelementptr i8, ptr %0, i64 24
  br label %5

5:                                                ; preds = %.lr.ph, %5
  %.038 = phi i32 [ 0, %.lr.ph ], [ %13, %5 ]
  %.03637 = phi i64 [ 16, %.lr.ph ], [ %12, %5 ]
  %6 = sext i32 %.038 to i64
  %.idx = mul nsw i64 %6, 24
  %7 = getelementptr i8, ptr %4, i64 %.idx
  %8 = load i32, ptr %7, align 8
  %9 = sext i32 %8 to i64
  %10 = shl nsw i64 %9, 1
  %11 = add i64 %.03637, 12
  %12 = add i64 %11, %10
  %13 = add nuw i32 %.038, 1
  %exitcond.not = icmp eq i32 %13, %3
  br i1 %exitcond.not, label %._crit_edge, label %5, !llvm.loop !16

._crit_edge:                                      ; preds = %5, %1
  %.036.lcssa = phi i64 [ 16, %1 ], [ %12, %5 ]
  %14 = tail call ptr @palloc(i64 noundef %.036.lcssa) #10
  %15 = trunc i64 %.036.lcssa to i32
  %16 = shl i32 %15, 2
  store i32 %16, ptr %14, align 4
  %17 = getelementptr inbounds nuw i8, ptr %14, i64 4
  %18 = load i32, ptr %0, align 8
  store i32 %18, ptr %17, align 1
  %19 = getelementptr inbounds nuw i8, ptr %14, i64 8
  %20 = getelementptr inbounds nuw i8, ptr %0, i64 4
  %21 = load i32, ptr %20, align 4
  store i32 %21, ptr %19, align 1
  %22 = getelementptr inbounds nuw i8, ptr %14, i64 12
  %23 = load i32, ptr %2, align 8
  store i32 %23, ptr %22, align 1
  %24 = load i32, ptr %2, align 8
  %.not44 = icmp eq i32 %24, 0
  br i1 %.not44, label %._crit_edge43, label %.lr.ph42

.lr.ph42:                                         ; preds = %._crit_edge
  %25 = getelementptr inbounds nuw i8, ptr %14, i64 16
  %26 = getelementptr inbounds nuw i8, ptr %0, i64 16
  br label %27

27:                                               ; preds = %.lr.ph42, %27
  %.140 = phi i32 [ 0, %.lr.ph42 ], [ %35, %27 ]
  %.03539 = phi ptr [ %25, %.lr.ph42 ], [ %34, %27 ]
  %28 = sext i32 %.140 to i64
  %29 = getelementptr inbounds [0 x %struct.MVNDistinctItem], ptr %26, i64 0, i64 %28
  %.sroa.0.0.copyload = load double, ptr %29, align 8
  %.sroa.4.0..sroa_idx = getelementptr inbounds nuw i8, ptr %29, i64 8
  %.sroa.4.0.copyload = load i32, ptr %.sroa.4.0..sroa_idx, align 8
  %.sroa.53.0..sroa_idx = getelementptr inbounds nuw i8, ptr %29, i64 16
  %.sroa.53.0.copyload = load ptr, ptr %.sroa.53.0..sroa_idx, align 8
  store double %.sroa.0.0.copyload, ptr %.03539, align 1
  %30 = getelementptr inbounds nuw i8, ptr %.03539, i64 8
  store i32 %.sroa.4.0.copyload, ptr %30, align 1
  %31 = getelementptr inbounds nuw i8, ptr %.03539, i64 12
  %32 = sext i32 %.sroa.4.0.copyload to i64
  %33 = shl nsw i64 %32, 1
  tail call void @llvm.memcpy.p0.p0.i64(ptr nonnull align 1 %31, ptr align 2 %.sroa.53.0.copyload, i64 %33, i1 false)
  %34 = getelementptr inbounds nuw i8, ptr %31, i64 %33
  %35 = add nuw i32 %.140, 1
  %36 = load i32, ptr %2, align 8
  %37 = icmp ult i32 %35, %36
  br i1 %37, label %27, label %._crit_edge43, !llvm.loop !17

._crit_edge43:                                    ; preds = %27, %._crit_edge
  ret ptr %14
}